(dp1
S'GMST'
p2
(dp3
S'iXPLevelKillCreatureEasy'
p4
I173108
sS'fAVDSkillMedicineBase'
p5
I575528
sS'fCombatSearchExteriorMaxRadius'
p6
I690504
sS'fAISocialRadiusToTriggerConversationInterior'
p7
I466805
sS'fSneakActionMult'
p8
I134257
sS'fBloodSplatterFlareSize'
p9
I203169
sS'fAVDHealRateEndurance7Bonus'
p10
I159435
sS'fMagicAreaScaleMin'
p11
I85117
sS'fAVDCarryWeightsBase'
p12
I157857
sS'fVATSMoveCameraLimbMult'
p13
I118673
sS'fFurnitureMarker20HeadingDelta'
p14
I338173
sS'fSunZExtreme'
p15
I2584
sS'fBloodSplatterMaxOpacity2'
p16
I203167
sS'fCombatFleeMaxDoorDistance'
p17
I173128
sS'fAVDSkillSpeechBase'
p18
I575534
sS'fDamageMeleeWeapCondMult'
p19
I143723
sS'fSplashSoundMedium'
p20
I635222
sS'fGunSpreadSkillBase'
p21
I839196
sS'fFurnitureMarker05DeltaY'
p22
I708007
sS'fFurnitureMarker05DeltaX'
p23
I708006
sS'fFurnitureMarker05DeltaZ'
p24
I708008
sS'iXPDeathRewardHealthThreshold'
p25
I157853
sS'fCombatFleeMinCoverDistance'
p26
I173126
sS'fConfidenceAverage'
p27
I481858
sS'iSpeechChallengeDifficultyVeryHard'
p28
I99828
sS'fFollowSpaceBetweenFollowers'
p29
I462159
sS'fAVDSkillUnarmedBase'
p30
I575536
sS'fAVDSkillMeleeWeaponsBase'
p31
I575529
sS'fItemRepairCostMult'
p32
I369070
sS'fBloodSplatterMinOpacity2'
p33
I203168
sS'fSneakBootWeightMult'
p34
I347230
sS'iXPRewardHackComputerVeryEasy'
p35
I157856
sS'iXPLevelKillCreatureHard'
p36
I98992
sS'fBlinkDownTime'
p37
I312746
sS'fEssentialDeathTime'
p38
I15803211
sS'fCombatConfidenceModifierMax'
p39
I475511
sS'fAISocialTimerForConversationsMax'
p40
I766505
sS'fVATSTargetActorZMultFar'
p41
I118668
sS'fItemConditionValueBase'
p42
I201160
sS'fActionPointsStand'
p43
I215077
sS'fWeaponConditionJam1'
p44
I570887
sS'fWeaponConditionJam3'
p45
I570885
sS'fWeaponConditionJam2'
p46
I570886
sS'fWeaponConditionJam4'
p47
I570884
sS'fGunShellEjectSpeed'
p48
I2051
sS'fVATSMoveCameraXPercent'
p49
I118658
sS'fAVDActionPointsBase'
p50
I215064
sS'fFurnitureMarker15HeadingDelta'
p51
I556723
sS'iMasserSize'
p52
I380829
sS'fBlockAmountWeaponMult'
p53
I752835
sS'fAVDHealthLevelMult'
p54
I342514
sS'fSneakLightMult'
p55
I103027
sS'iXPLevelKillCreatureVeryHard'
p56
I98993
sS'fSandboxDurationMultFurniture'
p57
I467773
sS'sKarmaMinorGainedImage'
p58
I706471
sS'fFurnitureMarker01DeltaY'
p59
I15050
sS'fFurnitureMarker01DeltaX'
p60
I15049
sS'fDamageGunWeapCondMult'
p61
I143721
sS'fFurnitureMarker01DeltaZ'
p62
I15051
sS'fVATSCamTransRBStart'
p63
I153786
sS'fBloodSplatterOpacityChance'
p64
I204366
sS'fSpeechChallengeDispositionMultiplier'
p65
I152154
sS'fJumpFallHeightExponent'
p66
I814694
sS'fGrenadeFriction'
p67
I86319
sS'fPlayerDeathReloadTime'
p68
I15803206
sS'fConfidenceBrave'
p69
I481859
sS'iProjectileMineShooterCanTrigger'
p70
I266508
sS'fVATSDistanceFactor'
p71
I212186
sS'fBarterBuyMult'
p72
I201157
sS'fDispActorCharBase'
p73
I130999
sS'iXPRewardHackComputerVeryHard'
p74
I757077
sS'fDamageMeleeWeapCondBase'
p75
I143724
sS'fCombatPlayerLimbDamageMult'
p76
I250913
sS'fFightDistanceMult'
p77
I103557
sS'fDamageToWeaponLauncherMult'
p78
I460690
sS'fFurnitureMarker18DeltaZ'
p79
I611610
sS'fFurnitureMarker18DeltaY'
p80
I611609
sS'fFurnitureMarker18DeltaX'
p81
I611608
sS'fGameplayImpulseMultBiped'
p82
I100672
sS'fAVDCarryWeightMult'
p83
I516059
sS'fArmorRatingBase'
p84
I250655
sS'fGrenadeRestitution'
p85
I86318
sS'fKarmaModStealing'
p86
I398752
sS'fMoveTwoCrippledLegsSpeedMult'
p87
I423280
sS'fCombatFleeNormalDistance'
p88
I173125
sS'fMoveRunMult'
p89
I85559
sS'fWeaponConditionRateOfFire9'
p90
I219535
sS'fWeaponConditionRateOfFire8'
p91
I219533
sS'fWeaponConditionRateOfFire7'
p92
I219532
sS'fWeaponConditionRateOfFire6'
p93
I219531
sS'fWeaponConditionRateOfFire5'
p94
I219528
sS'fWeaponConditionRateOfFire4'
p95
I219526
sS'fWeaponConditionRateOfFire3'
p96
I219525
sS'fWeaponConditionRateOfFire2'
p97
I219524
sS'fWeaponConditionRateOfFire1'
p98
I219523
sS'fDeathForceForceMax'
p99
I85633
sS'fFurnitureMarker16HeadingDelta'
p100
I592126
sS'fAVDHealRateEndurance8Bonus'
p101
I159437
sS'iXPLevelKillNPCVeryEasy'
p102
I770800
sS'fAVDHealthEnduranceMult'
p103
I159433
sS'fGunSpreadArmBase'
p104
I283216
sS'fActionPointsVATSMeleeMult'
p105
I752840
sS'fDamageToWeaponEnergyMult'
p106
I460689
sS'fSplashSoundHeavy'
p107
I635223
sS'fBloodSplatterDuration'
p108
I197844
sS'sKarmaMinorLostImage'
p109
I706470
sS'fVATSH2HWarpDistanceMult'
p110
I450004
sS'fKnockdownCurrentHealthThreshold'
p111
I172828
sS'fMagicLightForwardOffset'
p112
I207032
sS'fCombatSpeakHitChance'
p113
I87633
sS'fActionPointsAttackGrenade'
p114
I215066
sS'fFurnitureMarker15DeltaZ'
p115
I556722
sS'fAVDHealthEnduranceOffset'
p116
I215062
sS'fFurnitureMarker15DeltaY'
p117
I556721
sS'fAutoAimMaxDegreesMiss'
p118
I15803209
sS'fSneakSoundLosMult'
p119
I103028
sS'fDamageSkillBase'
p120
I143725
sS'fSneakMaxDistance'
p121
I124857
sS'fFurnitureMarker17HeadingDelta'
p122
I446597
sS'fVATSPlaybackDelay'
p123
I450006
sS'fAVDCritLuckBase'
p124
I215063
sS'fAddictionUsageMonitorThreshold'
p125
I460863
sS'fMasserAngleFadeStart'
p126
I786263
sS'fSneakBootWeightBase'
p127
I103026
sS'fSneakExteriorDistanceMult'
p128
I124858
sS'fCombatSearchInteriorMediumRadius'
p129
I690500
sS'fBloodSplatterFlareMult'
p130
I203170
sS'fDamageSkillMult'
p131
I143726
sS'fFurnitureMarker23HeadingDelta'
p132
I118689
sS'fFurnitureMarker20DeltaZ'
p133
I338174
sS'fAVDSkillLockpickBase'
p134
I575527
sS'fCommentOnPlayerActionsTimer'
p135
I460289
sS'fFurnitureMarker20DeltaX'
p136
I338176
sS'fMagicAreaScaleMax'
p137
I85118
sS'sOverEncumbered'
p138
I686504
sS'fExplodeLimbRemovalDelay'
p139
I201471
sS'fFurnitureMarker11DeltaX'
p140
I15066
sS'fFurnitureMarker11DeltaY'
p141
I15067
sS'fDiffMultXPVH'
p142
I505577
sS'fAISocialchanceForConversation'
p143
I646905
sS'fChase3rdPersonZUnitsPerSecond'
p144
I249034
sS'fRepairSkillMax'
p145
I474466
sS'fCombatSpeakHitThreshold'
p146
I87634
sS'fVATSRangeSpreadMax'
p147
I472309
sS'fFleeDistanceExterior'
p148
I86449
sS'fGunSpreadCondBase'
p149
I824607
sS'fVATSStrangerDistance'
p150
I467897
sS'fRadiationDecayRate'
p151
I144824
sS'fFatigueBlockBase'
p152
I752836
sS'fWeaponConditionSpread6'
p153
I641384
sS'fSpeechAutoSuccessThreshold'
p154
I152152
sS'fFurnitureMarker15DeltaX'
p155
I556720
sS'iMessCrippledLimbExplodeBonus'
p156
I837150
sS'fFurnitureMarker19DeltaZ'
p157
I204827
sS'fMoveOneCrippledLegSpeedMult'
p158
I423281
sS'fActionPointsSwitchWeapon'
p159
I215079
sS'fFurnitureMarker03DeltaZ'
p160
I494318
sS'fFurnitureMarker03DeltaY'
p161
I494317
sS'fFurnitureMarker03DeltaX'
p162
I494316
sS'iXPRewardKillOpponentAverage'
p163
I474647
sS'fGunSpreadRunMult'
p164
I17509
sS'fKnockbackForceMax'
p165
I139395
sS'fCombatUnarmedCritDamageMult'
p166
I517680
sS'fDiffMultXPH'
p167
I505578
sS'fMagicLightHeightOffset'
p168
I207031
sS'fVATSScreenPercentFactor'
p169
I380758
sS'fDispActorCharMult'
p170
I131000
sS'sPlayerLeavingBorderRegion'
p171
I371768
sS'sTerminalServerText10'
p172
I751086
sS'fMoveSneakMult'
p173
I85560
sS'fActionPointsRestoreRate'
p174
I131213
sS'fMagicMedicineSkillMult'
p175
I541292
sS'fAVDSkillSneakBase'
p176
I575533
sS'iAICombatRestoreHealthPercentage'
p177
I409221
sS'iXPRewardPickLockVeryHard'
p178
I757081
sS'fAISocialTimerForConversationsMin'
p179
I766504
sS'fExplosionImageSpaceSwapPower'
p180
I594120
sS'sNoPickPocketAgain'
p181
I695570
sS'fActionPointsAttackPistol'
p182
I215070
sS'fExplosionForceMultAngular'
p183
I85685
sS'fCombatSearchExteriorMinRadius'
p184
I690502
sS'sNoTalkUnConscious'
p185
I695571
sS'fDeathForceDamageMax'
p186
I85634
sS'fAVDSkillSmallGunsBase'
p187
I575532
sS'fAutoAimMaxDistance'
p188
I85795
sS'fAutoAimScreenPercentage'
p189
I85796
sS'fFurnitureMarker13DeltaX'
p190
I15074
sS'fFurnitureMarker13DeltaY'
p191
I15075
sS'fFurnitureMarker13DeltaZ'
p192
I15076
sS'fExplosionForceMultLinear'
p193
I85686
sS'fFollowRunMinSlowdownMultiplier'
p194
I437116
sS'fFurnitureMarker14HeadingDelta'
p195
I16147
sS'iXPLevelKillCreatureVeryEasy'
p196
I173107
sS'fFurnitureMarker03HeadingDelta'
p197
I494319
sS'fVATSStrangerOdds'
p198
I726473
sS'fGunSpreadSkillMult'
p199
I17508
sS'fAutoAimMissRatioHigh'
p200
I183651
sS'fSunXExtreme'
p201
I2582
sS'fVATSRadialStrength'
p202
I113763
sS'fArrowBowTimerMult'
p203
I160614
sS'fActionPointsAttackMine'
p204
I215068
sS'fBloodSplatterMinOpacity'
p205
I467900
sS'fCombatSneakAttackBonusMult'
p206
I284227
sS'iCombatDismemberPartChance'
p207
I84840
sS'fOverShoulderPosZ'
p208
I16999
sS'fOverShoulderPosX'
p209
I87571
sS'iVATSStrangerMaxHP'
p210
I726474
sS'fDefaultNoticeTextDisplayTime'
p211
I100201
sS'fAVDUnarmedDamageMult'
p212
I441589
sS'sCriticalStrikeIcon'
p213
I86493
sS'fCombatDialogueAttackMinElapsedTime'
p214
I139455
sS'fCombatFleeMaxCoverDistance'
p215
I173129
sS'iCombatTargetLostRemoveSearchCount'
p216
I686157
sS'fActionPointsFOVMult'
p217
I136194
sS'fCombatSpeakAttackChance'
p218
I86107
sS'iSpeechChallengeDifficultyAverage'
p219
I152150
sS'iXPRewardKillOpponentEasy'
p220
I474646
sS'sKarmaMajorLost'
p221
I704361
sS'fDamagePowerAttackBackBonus'
p222
I284487
sS'fCombatThreatRatioUpdateTime'
p223
I154721
sS'fCombatFleeMinAllyDistance'
p224
I173127
sS'iXPRewardPickLockHard'
p225
I757750
sS'fDamageToArmorPercentage'
p226
I460692
sS'fGuardPackageAttackRadiusMult'
p227
I658433
sS'iDeathDropWeaponChance'
p228
I199171
sS'fFatigueBlockMult'
p229
I752837
sS'fWorldQuestMarkerMinSize'
p230
I834790
sS'fMinesDelayMin'
p231
I370026
sS'fPlayerDetectActorValue'
p232
I401333
sS'fVATSPlayerTimeUpdateMult'
p233
I113797
sS'fVATSTargetFOVMultNear'
p234
I118662
sS'fBarterSellBase'
p235
I201158
sS'fFurnitureMarker05HeadingDelta'
p236
I708009
sS'fIdleChatterCommentTimerMax'
p237
I462100
sS'fFurnitureMarker11HeadingDelta'
p238
I15069
sS'fAVDSkillExplosivesBase'
p239
I575526
sS'iXPRewardKillOpponentVeryEasy'
p240
I649398
sS'fBloodSplatterMinSize'
p241
I197842
sS'fAIUseWeaponDistance'
p242
I253019
sS'fJumpSwimmingMult'
p243
I341525
sS'fExplosionSplashRadius'
p244
I493689
sS'fAVDActionPointsMult'
p245
I215065
sS'fFleeDistanceInterior'
p246
I284857
sS'fJumpHeightMin'
p247
I15803212
sS'iXPRewardSpeechChallengeVeryEasy'
p248
I157855
sS'fAVDHealRateEndurance6Bonus'
p249
I159434
sS'fActionPointsAttackHandle'
p250
I215067
sS'fVATSCameraCutAwayDistance'
p251
I786024
sS'fMineExteriorRadiusMult'
p252
I101969
sS'fActionPointsRunAndGunMult'
p253
I136195
sS'fBarterBuyBase'
p254
I201150
sS'fPickPocketActorSkillBase'
p255
I517678
sS'iXPLevelKillNPCAverage'
p256
I770798
sS'fProjectileInventoryGrenadeTimer'
p257
I262661
sS'iBloodSplatterMaxCount'
p258
I543076
sS'fAVDSkillBigGunsBase'
p259
I575542
sS'iHackingMaxWords'
p260
I15803215
sS'fItemConditionValueMult'
p261
I201161
sS'iXPRewardPickLockVeryEasy'
p262
I157854
sS'iMessTargetedLimbExplodeBonus'
p263
I837153
sS'fAVDHealRateEndurance9Bonus'
p264
I159438
sS'sMorphine'
p265
I518490
sS'fPickPocketTargetSkillMult'
p266
I517676
sS'fAVDTagSkillBonus'
p267
I342515
sS'fFurnitureMarker04HeadingDelta'
p268
I494315
sS'fCombatSearchInteriorMaxRadius'
p269
I690499
sS'fSneakBaseValue'
p270
I211906
sS'fFurnitureMarker01HeadingDelta'
p271
I15052
sS'iMineDisarmExperience'
p272
I801988
sS'fSneakRunningMult'
p273
I347238
sS'fVATSPlayerDamageMult'
p274
I179923
sS'iGuardWarnings'
p275
I649436
sS'fAVDSkillBarterBase'
p276
I575525
sS'fGameplayImpulseMultProp'
p277
I100671
sS'fFurnitureMarker17DeltaX'
p278
I446594
sS'fFurnitureMarker17DeltaY'
p279
I446595
sS'fFurnitureMarker17DeltaZ'
p280
I446596
sS'sKarmaMajorGained'
p281
I704360
sS'fSwimRadiationDamageMult'
p282
I837149
sS'iLevelUpSkillPointsBase'
p283
I394152
sS'iXPBumpBase'
p284
I800534
sS'sNoTalkFleeing'
p285
I173820
sS'fMasserAngleFadeEnd'
p286
I786262
sS'fWorldfPlayerCursorMinSize'
p287
I834789
sS'iFriendHitCombatAllowed'
p288
I265993
sS'fSpeechChallengeDispositionBase'
p289
I152155
sS'sLeftArmDamagedIcon'
p290
I86495
sS'fCombatDialogueAttackMaxElapsedTime'
p291
I139456
sS'iSpeechChallengeDifficultyEasy'
p292
I152149
sS'fGunSpreadArmMult'
p293
I283217
sS'fActionPointsAttackOneHandMelee'
p294
I215069
sS'fAutoAimMaxDegrees'
p295
I132651
sS'fIronSightsDOFStrengthCap'
p296
I119797
sS'sNoWaitHostilActorsNear'
p297
I474463
sS'fCombatThreatProximityExplosionAvoidTime'
p298
I512711
sS'fActionPointsAttackRifle'
p299
I139696
sS'fAVDSkillRepairBase'
p300
I575530
sS'sKarmaMinorGained'
p301
I704362
sS'sHeadDamagedIcon'
p302
I86494
sS'fCombatAbsoluteMaxRangeMult'
p303
I727078
sS'fActionPointsAimAdjustment'
p304
I140671
sS'sDownloadsNotAvail'
p305
I518681
sS'sLoadingArea'
p306
I119004
sS'fVATSTargetFOVMultFar'
p307
I118653
sS'fGunWobbleMultScope'
p308
I424434
sS'fFurnitureMarker21DeltaZ'
p309
I137194
sS'fFurnitureMarker21DeltaY'
p310
I137193
sS'fFurnitureMarker21DeltaX'
p311
I137192
sS'iLevelUpSkillPointsInterval'
p312
I394153
sS'fFurnitureMarker02DeltaZ'
p313
I15055
sS'fFurnitureMarker02DeltaX'
p314
I15053
sS'fVATSTargetActorZMultFarDist'
p315
I204208
sS'fDeathForceDamageMin'
p316
I86440
sS'iMessTorsoExplodeChance'
p317
I837154
sS'fSunMinimumGlareScale'
p318
I380908
sS'fBloodSplatterMaxSize'
p319
I197846
sS'fFurnitureMarker06HeadingDelta'
p320
I708014
sS'iXPLevelKillCreatureAverage'
p321
I98991
sS'fAVDNPCHealthLevelMult'
p322
I714347
sS'fSpeechChallengeFailureBase'
p323
I152156
sS'fPlayerPipBoyLightTimer'
p324
I15803213
sS'fFurnitureMarker11DeltaZ'
p325
I15068
sS'fFurnitureMarker18HeadingDelta'
p326
I611611
sS'fFurnitureMarker14DeltaZ'
p327
I16146
sS'fFightAggrBase'
p328
I103755
sS'fFurnitureMarker14DeltaX'
p329
I16144
sS'fGunParticleCameraDistance'
p330
I126733
sS'sKBSpace'
p331
I695569
sS'fJumpFallHeightMin'
p332
I607942
sS'fVATSDOFStrengthCap'
p333
I116447
sS'fVanityModeWheelMax'
p334
I15803208
sS'fCombatFleeWaitTime'
p335
I173124
sS'fFurnitureMarker06DeltaX'
p336
I708011
sS'fPickPocketMaxChance'
p337
I517679
sS'fAVDMeleeDamageStrengthOffset'
p338
I155060
sS'fDamageToWeaponMeleeMult'
p339
I460691
sS'iXPRewardHackComputerEasy'
p340
I757076
sS'sKarmaMajorGainedImage'
p341
I706473
sS'iSpeechChallengeDifficultyHard'
p342
I152151
sS'sNPCModelFemale'
p343
I103452
sS'fCombatCurrentWeaponAbsoluteMaxRangeMult'
p344
I660667
sS'fSpeechChallengeFailureMultiplier'
p345
I152157
sS'fCombatFollowRadiusMult'
p346
I450077
sS'fActionPointsAttackUnarmed'
p347
I215072
sS'fGunSpreadCrouchMult'
p348
I17510
sS'fVATSGrenadeTargetArea'
p349
I726945
sS'fLevelScalingMult'
p350
I173123
sS'fDamagePowerAttackBonus'
p351
I284488
sS'sBloodParticleDefault'
p352
I119496
sS'fGameplayImpulseMultDebrisLarge'
p353
I617846
sS'fJumpFallVelocityMin'
p354
I398656
sS'fIronSightsMotionBlur'
p355
I101458
sS'fGunShellDirectionRandomize'
p356
I2053
sS'fFurnitureMarker14DeltaY'
p357
I16145
sS'iSecundaSize'
p358
I117960
sS'fVATSSmartCameraCheckStepDistance'
p359
I373056
sS'iXPRewardPickLockEasy'
p360
I757080
sS'iSpeechChallengeDifficultyVeryEasy'
p361
I152148
sS'fDamagePowerAttackForwardBonus'
p362
I284493
sS'sHairColor15'
p363
I756382
sS'sHairColor14'
p364
I756368
sS'sHairColor13'
p365
I756373
sS'sHairColor12'
p366
I756375
sS'sHairColor11'
p367
I756374
sS'sHairColor10'
p368
I756372
sS'fConcussionTimer'
p369
I122880
sS'sRightLegDamagedIcon'
p370
I86498
sS'fCombatSearchExteriorMediumRadius'
p371
I690503
sS'fNPCMaxGunWobbleAngle'
p372
I281782
sS'fFurnitureMarker02HeadingDelta'
p373
I15056
sS'fFurnitureMarker19HeadingDelta'
p374
I204828
sS'fVATSRangeSpreadUncertainty'
p375
I196007
sS'fFightDistanceBase'
p376
I103556
sS'fAVDUnarmedDamageBase'
p377
I441588
sS'fLeveledActorMultMedium'
p378
I373810
sS'fFurnitureMarker20DeltaY'
p379
I338175
sS'fSecundaAngleFadeStart'
p380
I786265
sS'fWeaponConditionSpread9'
p381
I641387
sS'fWeaponConditionSpread8'
p382
I641386
sS'fWeaponConditionSpread7'
p383
I641385
sS'iAINumberActorsComplexScene'
p384
I15803214
sS'fWeaponConditionSpread5'
p385
I641383
sS'fWeaponConditionSpread4'
p386
I641382
sS'fDispTargetCharMult'
p387
I131001
sS'fWeaponConditionSpread2'
p388
I641380
sS'fFurnitureMarker19DeltaX'
p389
I204825
sS'fFurnitureMarker19DeltaY'
p390
I204826
sS'fOverShoulderOffsetPointZ'
p391
I87574
sS'fWadeRadiationDamageMult'
p392
I719222
sS'fOverShoulderOffsetPointX'
p393
I87573
sS'fVATSSpreadMult'
p394
I332791
sS'fOverShoulderStartBlendDist'
p395
I17000
sS'fAutoAimMissRatioLow'
p396
I183650
sS'fNoticeTextTimePerCharacter'
p397
I100203
sS'fVATSShotLongBurstTime'
p398
I349163
sS'fVATSSmartCameraCheckHeight'
p399
I637511
sS'iXPRewardHackComputerHard'
p400
I757749
sS'fLeveledActorMultEasy'
p401
I373811
sS'fOverShoulderRotMult'
p402
I87572
sS'iXPRewardKillOpponentHard'
p403
I474652
sS'fGunSpreadDriftMult'
p404
I820446
sS'fBloodSplatterFlareOffsetScale'
p405
I198566
sS'fAISocialchanceForConversationInterior'
p406
I646906
sS'fFurnitureMarker21HeadingDelta'
p407
I137195
sS'fLeveledActorMultBoss'
p408
I373808
sS'iMessIntactLimbExplodeBonus'
p409
I837152
sS'fNonAttackGunWobbleMult'
p410
I224149
sS'fExplosionSourceRefMult'
p411
I155961
sS'fLeveledActorMultHard'
p412
I373809
sS'fCombatSearchInteriorMinRadius'
p413
I690501
sS'iSoundLevelSilent'
p414
I103555
sS'fVATSTargetActorZMultNear'
p415
I118654
sS'fVATSTargetFOVMultFarDist'
p416
I118649
sS'fRadiationAccumulationRate'
p417
I144825
sS'fFurnitureMarker06DeltaZ'
p418
I708013
sS'fBloodSplatterMaxOpacity'
p419
I197843
sS'fFurnitureMarker06DeltaY'
p420
I708012
sS'fOverShoulderOffsetPointZoomingX'
p421
I87575
sS'fOverShoulderOffsetPointZoomingY'
p422
I87576
sS'fOverShoulderOffsetPointZoomingZ'
p423
I87577
sS'fArrowBowTimerBase'
p424
I160613
sS'fIronSightsGunMotionBlur'
p425
I119796
sS'fFurnitureMarker12DeltaY'
p426
I15071
sS'fFurnitureMarker12DeltaX'
p427
I15070
sS'fFurnitureMarker12DeltaZ'
p428
I15072
sS'fSpeechDelay'
p429
I355889
sS'fActionPointsPowerAttackMult'
p430
I215075
sS'sPCControlsTextPrefix'
p431
I704074
sS'fActionPointsAttackLauncher'
p432
I139697
sS'fArmorRatingMax'
p433
I820445
sS'fCombatItemRestoreTimer'
p434
I482335
sS'fVATSMeleeWarpDistanceMult'
p435
I450005
sS'fVATSCameraDollyMin'
p436
I443149
sS'fExplodeLimbRemovalDelayVATS'
p437
I201472
sS'fAVDNPCHealthEnduranceMult'
p438
I714346
sS'fDeathForceForceMin'
p439
I85632
sS'fCombatFleeMaxAllyDistance'
p440
I173130
sS'fPickPocketActorSkillMult'
p441
I517677
sS'fConfidenceCautious'
p442
I481857
sS'fVanityModeAutoDelay'
p443
I2585
sS'fIdleChatterCommentTimer'
p444
I462099
sS'fAVDSkillScienceBase'
p445
I575531
sS'fFurnitureMarker04DeltaX'
p446
I494312
sS'fFurnitureMarker04DeltaY'
p447
I494313
sS'fFurnitureMarker04DeltaZ'
p448
I494314
sS'fCombatConfidenceModifierMin'
p449
I475513
sS'sKarmaMajorLostImage'
p450
I706472
sS'iXPRewardKillOpponentVeryHard'
p451
I701527
sS'fVATSDamageToWeaponMult'
p452
I827411
sS'sNoSleepHostileActorsNear'
p453
I474457
sS'sLeftLegDamagedIcon'
p454
I86496
sS'fGunSpreadCondMult'
p455
I820447
sS'fProjectileKnockMultBiped'
p456
I86439
sS'fVATSRadialStart'
p457
I113764
sS'fBloodSplatterFadeStart'
p458
I197845
sS'iCombatExplodePartChance'
p459
I117688
sS'fCombatDetectionDialogueIdleMaxElapsedTime'
p460
I197317
sS'fDamagePowerAttackStandBonus'
p461
I284497
sS'fSneakSkillMult'
p462
I103029
sS'fIronSightsDOFDistance'
p463
I113761
sS'sSplashParticles'
p464
I147717
sS'fBarterSellMult'
p465
I201159
sS'fCombatDamageBonusSneakingMult'
p466
I517209
sS'fWarningTimer'
p467
I649437
sS'fWeaponConditionSpread3'
p468
I641381
sS'fVATSCamTransRBStrengthCap'
p469
I153787
sS'iXPLevelKillNPCEasy'
p470
I770799
sS'fVATSDOFRange'
p471
I116446
sS'iXPRewardDiscoverMapMarker'
p472
I757073
sS'fFightFriendDispBase'
p473
I103756
sS'fDamageToWeaponGunMult'
p474
I460688
sS'iXPRewardPickLockAverage'
p475
I757079
sS'fSecundaAngleFadeEnd'
p476
I786264
sS'fActionPointsAttackTwoHandMelee'
p477
I215071
sS'iXPRewardPickLock'
p478
I757078
sS'fBlockMax'
p479
I752838
sS'fAIDefaultSpeechMult'
p480
I120699
sS'fRadiationResistanceAvoidLevel'
p481
I399643
sS'fBlockSkillMult'
p482
I752839
sS'fSpeechChallengeMultiplier'
p483
I152153
sS'fCombatTeammateFollowRadiusMult'
p484
I450076
sS'fSunYExtreme'
p485
I2583
sS'fCombatDetectionDialogueIdleMinElapsedTime'
p486
I197316
sS'iMapMarkerVisibleDistance'
p487
I15803207
sS'fActionPointsCrouch'
p488
I215073
sS'iXPRewardHackComputerAverage'
p489
I757075
sS'fWeaponConditionSpread1'
p490
I641379
sS'fIronSightsDOFRange'
p491
I113760
sS'iHoursToRespawnCell'
p492
I15803210
sS'fActionPointsReload'
p493
I215076
sS'iXPLevelKillNPCVeryHard'
p494
I770796
sS'fVATSTargetRotateMult'
p495
I87663
sS'fFurnitureMarker13HeadingDelta'
p496
I15077
sS'fMoveLegConditionMult'
p497
I139664
sS'iXPLevelKillNPCHard'
p498
I770797
sS'fVATSCameraDollyTime'
p499
I310182
sS'fGameplayImpulseMultClutter'
p500
I100673
sS'iMessIntactLimbDismemberChance'
p501
I837151
sS'fFurnitureMarker12HeadingDelta'
p502
I15073
sS'fPickPocketAmountMult'
p503
I517060
sS'fFurnitureMarker02DeltaY'
p504
I15054
sS'fDamageGunWeapCondBase'
p505
I143722
sS'fMaxArmorRating'
p506
I517048
sS'fVATSParalyzePalmChance'
p507
I122533
sS'fAVDMeleeDamageStrengthMult'
p508
I155061
sS'fMagicLightSideOffset'
p509
I207033
sS'fKarmaModKillingEvilActor'
p510
I592122
sS'fFurnitureMarker16DeltaY'
p511
I592124
sS'fFurnitureMarker16DeltaX'
p512
I592123
sS'fFurnitureMarker16DeltaZ'
p513
I592125
sS'sRightArmDamagedIcon'
p514
I86497
sS'fBlinkUpTime'
p515
I312747
sS'iXPRewardHackComputer'
p516
I757074
sS'fVATSRadialRampup'
p517
I116448
sS'fAVDSkillEnergyWeaponsBase'
p518
I575543
sS'fSneakAmbushNonTargetMod'
p519
I367311
sS'fSandboxDurationMultIdleMarker'
p520
I467781
sS'fAVDHealRateEndurance10Bonus'
p521
I159436
sS'fActionPointsHeal'
p522
I215074
sS'sKarmaMinorLost'
p523
I704363
sS'fDamagePowerAttackSideBonus'
p524
I284494
sS'fActionPointsToggleWeaponDrawn'
p525
I215080
sS'sHairColor9'
p526
I756380
sS'sHairColor8'
p527
I756379
sS'fFurnitureMarker23DeltaY'
p528
I118681
sS'fFurnitureMarker23DeltaX'
p529
I118680
sS'fFurnitureMarker23DeltaZ'
p530
I118683
sS'sHairColor3'
p531
I756370
sS'sHairColor2'
p532
I756376
sS'sHairColor1'
p533
I756381
sS'sHairColor0'
p534
I756369
sS'sHairColor7'
p535
I756371
sS'sHairColor6'
p536
I756378
sS'sHairColor5'
p537
I756383
sS'sHairColor4'
p538
I756377
sS'fProjectileInventoryGrenadeFreakoutTime'
p539
I262660
sS'fActionPointsSustainedFireMult'
p540
I215078
sS'fExplosionWaterRadiusRatio'
p541
I423269
sS'fMoveBaseSpeed'
p542
I84881
sS'fVanityModeWheelMin'
p543
I119804
ss.